; Function Attrs: nounwind uwtable
define i32 @wc_RsaSSL_Verify_ex2(ptr noundef captures(address_is_null) %0, i32 noundef %1, ptr noundef %2, i32 noundef %3, ptr noundef %4, i32 noundef %5, i32 noundef %6) local_unnamed_addr #0 {
  %8 = icmp eq ptr %4, null
  br i1 %8, label %15, label %9

9:                                                ; preds = %7
  %10 = getelementptr inbounds nuw i8, ptr %4, i64 8352
  %11 = load ptr, ptr %10, align 8, !tbaa !14
  %switch.tableidx = add i32 %6, -4
  %12 = icmp ult i32 %switch.tableidx, 5
  br i1 %12, label %switch.lookup, label %wc_hash2mgf.exit

switch.lookup:                                    ; preds = %9
  %13 = zext nneg i32 %switch.tableidx to i64
  %switch.gep = getelementptr inbounds nuw [5 x i32], ptr @switch.table.wc_RsaSSL_Verify_ex2, i64 0, i64 %13
  %switch.load = load i32, ptr %switch.gep, align 4
  br label %wc_hash2mgf.exit

wc_hash2mgf.exit:                                 ; preds = %9, %switch.lookup
  %.0.i = phi i32 [ %switch.load, %switch.lookup ], [ 0, %9 ]
  %14 = tail call fastcc i32 @RsaPrivateDecryptEx(ptr noundef %0, i32 noundef %1, ptr noundef %2, i32 noundef %3, ptr noundef null, ptr noundef nonnull %4, i32 noundef 1, i8 noundef zeroext 1, i32 noundef %5, i32 noundef %6, i32 noundef %.0.i, ptr noundef null, i32 noundef 0, i32 noundef -1, ptr noundef %11)
  br label %15

15:                                               ; preds = %7, %wc_hash2mgf.exit
  %.0 = phi i32 [ %14, %wc_hash2mgf.exit ], [ -173, %7 ]
  ret i32 %.0
}